; Function Attrs: mustprogress uwtable
define void @_ZN8facebook5velox8encoding6Base646decodeB5cxx11EN5folly5RangeIPKcEE(ptr noalias nonnull sret(%"class.std::__cxx11::basic_string") align 8 %agg.result, ptr %encoded.coerce0, ptr %encoded.coerce1) local_unnamed_addr #2 align 2 personality ptr @__gxx_personality_v0 {
invoke.cont6:
  tail call void @_ZNSt7__cxx1112basic_stringIcSt11char_traitsIcESaIcEEC1Ev(ptr noundef nonnull align 8 dereferenceable(32) %agg.result) #10
  %sub.ptr.lhs.cast.i = ptrtoint ptr %encoded.coerce1 to i64
  %sub.ptr.rhs.cast.i = ptrtoint ptr %encoded.coerce0 to i64
  %sub.ptr.sub.i = sub i64 %sub.ptr.lhs.cast.i, %sub.ptr.rhs.cast.i
  %conv.i = trunc i64 %sub.ptr.sub.i to i32
  %div.i = sdiv i32 %conv.i, 4
  %mul.i = mul nsw i32 %div.i, 3
  %conv.i2 = sext i32 %mul.i to i64
  invoke void @_ZNSt7__cxx1112basic_stringIcSt11char_traitsIcESaIcEE6resizeEmc(ptr noundef nonnull align 8 dereferenceable(32) %agg.result, i64 noundef %conv.i2, i8 noundef signext 0)
          to label %.noexc unwind label %lpad

.noexc:                                           ; preds = %invoke.cont6
  %call.i3 = invoke noundef nonnull align 1 dereferenceable(1) ptr @_ZNSt7__cxx1112basic_stringIcSt11char_traitsIcESaIcEEixEm(ptr noundef nonnull align 8 dereferenceable(32) %agg.result, i64 noundef 0)
          to label %call.i.noexc unwind label %lpad

call.i.noexc:                                     ; preds = %.noexc
  %sext = shl i64 %sub.ptr.sub.i, 32
  %conv2.i = ashr exact i64 %sext, 32
  %call.i.i4 = invoke noundef i64 @_ZN8facebook5velox8encoding6Base6410decodeImplEPKcmPcmRKSt5arrayIhLm256EEb(ptr noundef %encoded.coerce0, i64 noundef %conv2.i, ptr noundef nonnull %call.i3, i64 noundef %conv.i2, ptr noundef nonnull align 1 dereferenceable(256) @_ZN8facebook5velox8encodingL24kBase64ReverseIndexTableE, i1 noundef zeroext true)
          to label %call.i.i.noexc unwind label %lpad

call.i.i.noexc:                                   ; preds = %call.i.noexc
  invoke void @_ZNSt7__cxx1112basic_stringIcSt11char_traitsIcESaIcEE6resizeEm(ptr noundef nonnull align 8 dereferenceable(32) %agg.result, i64 noundef %call.i.i4)
          to label %nrvo.skipdtor unwind label %lpad

lpad:                                             ; preds = %call.i.i.noexc, %call.i.noexc, %.noexc, %invoke.cont6
  %0 = landingpad { ptr, i32 }
          cleanup
  tail call void @_ZNSt7__cxx1112basic_stringIcSt11char_traitsIcESaIcEED1Ev(ptr noundef nonnull align 8 dereferenceable(32) %agg.result) #10
  resume { ptr, i32 } %0

nrvo.skipdtor:                                    ; preds = %call.i.i.noexc
  ret void
}